target datalayout = "e-m:e-p270:32:32-p271:32:32-p272:64:64-i64:64-i128:128-f80:128-n8:16:32:64-S128"
target triple = "x86_64-pc-linux-gnu"

%"class.nix::PosIdx" = type { i32 }

@_ZN3nix5noPosE = linkonce_odr global %"class.nix::PosIdx" zeroinitializer, comdat, align 4
@_ZGVN3nix5noPosE = linkonce_odr global i64 0, comdat($_ZN3nix5noPosE), align 8

; Function Attrs: mustprogress nounwind uwtable
define linkonce_odr void @_ZN3nix6PosIdxC2Ev(ptr noundef nonnull align 4 dereferenceable(4) %0) unnamed_addr #2 comdat align 2 {
  %2 = alloca ptr, align 8
  store ptr %0, ptr %2, align 8
  %3 = load ptr, ptr %2, align 8
  %4 = getelementptr inbounds %"class.nix::PosIdx", ptr %3, i32 0, i32 0
  store i32 0, ptr %4, align 4
  ret void
}

; Function Attrs: uwtable
define internal void @__cxx_global_var_init.4() #0 section ".text.startup" comdat($_ZN3nix5noPosE) personality ptr @__gxx_personality_v0 {
  %1 = alloca ptr, align 8
  %2 = alloca i32, align 4
  %3 = load atomic i8, ptr @_ZGVN3nix5noPosE acquire, align 8
  %4 = icmp eq i8 %3, 0
  br i1 %4, label %5, label %10

5:                                                ; preds = %0
  %6 = call i32 @__cxa_guard_acquire(ptr @_ZGVN3nix5noPosE) #1
  %7 = icmp ne i32 %6, 0
  br i1 %7, label %8, label %10

8:                                                ; preds = %5
  invoke void @_ZN3nix6PosIdxC2Ev(ptr noundef nonnull align 4 dereferenceable(4) @_ZN3nix5noPosE)
          to label %9 unwind label %11

9:                                                ; preds = %8
  call void @__cxa_guard_release(ptr @_ZGVN3nix5noPosE) #1
  br label %10

10:                                               ; preds = %9, %5, %0
  ret void

11:                                               ; preds = %8
  %12 = landingpad { ptr, i32 }
          cleanup
  %13 = extractvalue { ptr, i32 } %12, 0
  store ptr %13, ptr %1, align 8
  %14 = extractvalue { ptr, i32 } %12, 1
  store i32 %14, ptr %2, align 4
  call void @__cxa_guard_abort(ptr @_ZGVN3nix5noPosE) #1
  br label %15

15:                                               ; preds = %11
  %16 = load ptr, ptr %1, align 8
  %17 = load i32, ptr %2, align 4
  %18 = insertvalue { ptr, i32 } poison, ptr %16, 0
  %19 = insertvalue { ptr, i32 } %18, i32 %17, 1
  resume { ptr, i32 } %19
}